; Function Attrs: nounwind uwtable
define internal void @pgoutput_stream_prepare_txn(ptr noundef %0, ptr noundef %1, i64 noundef %2) #2 {
  tail call void @OutputPluginUpdateProgress(ptr noundef %0, i1 noundef zeroext false) #13
  tail call void @OutputPluginPrepareWrite(ptr noundef %0, i1 noundef zeroext true) #13
  %4 = getelementptr inbounds nuw i8, ptr %0, i64 256
  %5 = load ptr, ptr %4, align 8
  tail call void @logicalrep_write_stream_prepare(ptr noundef %5, ptr noundef %1, i64 noundef %2) #13
  tail call void @OutputPluginWrite(ptr noundef %0, i1 noundef zeroext true) #13
  ret void
}